   1               		.file	"kdebug.c"
   2               	__SREG__ = 0x3f
   3               	__SP_H__ = 0x3e
   4               	__SP_L__ = 0x3d
   5               	__CCP__  = 0x34
   6               	__tmp_reg__ = 0
   7               	__zero_reg__ = 1
  15               	.Ltext0:
  16               		.section	.text.__kputchar,"ax",@progbits
  18               	__kputchar:
  19               	.LFB4:
  20               	.LSM0:
  21               	.LVL0:
  22               	/* prologue: function */
  23               	/* frame size = 0 */
  24 0000 982F      		mov r25,r24	 ;  2	*movqi/1	[length = 1]
  25               	.LVL1:
  26               	.L2:
  27               	.LSM1:
  28 0002 8091 C000 		lds r24,192	 ;  9	*movqi/4	[length = 2]
  29 0006 85FF      		sbrs r24,5	 ;  14	*sbrx_branch	[length = 2]
  30 0008 00C0      		rjmp .L2
  31               	.LSM2:
  32 000a 9A30      		cpi r25,lo8(10)	 ;  16	cmpqi/2	[length = 1]
  33 000c 01F4      		brne .L3	 ;  17	branch	[length = 1]
  34               	.LSM3:
  35 000e 8091 C000 		lds r24,192	 ;  20	*movqi/4	[length = 2]
  36 0012 8064      		ori r24,lo8(64)	 ;  21	iorqi3/2	[length = 1]
  37 0014 8093 C000 		sts 192,r24	 ;  23	*movqi/3	[length = 2]
  38 0018 8DE0      		ldi r24,lo8(13)	 ;  25	*movqi/2	[length = 1]
  39 001a 8093 C600 		sts 198,r24	 ;  26	*movqi/3	[length = 2]
  40               	.L4:
  41               	.LSM4:
  42 001e 8091 C000 		lds r24,192	 ;  29	*movqi/4	[length = 2]
  43 0022 85FF      		sbrs r24,5	 ;  34	*sbrx_branch	[length = 2]
  44 0024 00C0      		rjmp .L4
  45               	.L3:
  46               	.LSM5:
  47 0026 8091 C000 		lds r24,192	 ;  38	*movqi/4	[length = 2]
  48 002a 8064      		ori r24,lo8(64)	 ;  39	iorqi3/2	[length = 1]
  49 002c 8093 C000 		sts 192,r24	 ;  41	*movqi/3	[length = 2]
  50 0030 9093 C600 		sts 198,r25	 ;  44	*movqi/3	[length = 2]
  51               	/* epilogue start */
  52               	.LSM6:
  53 0034 0895      		ret	 ;  61	return	[length = 1]
  54               	.LFE4:
  56               		.section	.text.kputchar,"ax",@progbits
  57               	.global	kputchar
  59               	kputchar:
  60               	.LFB5:
  61               	.LSM7:
  62               	.LVL2:
  63 0000 1F93      		push r17	 ;  44	*pushqi/1	[length = 1]
  64               	/* prologue: function */
  65               	/* frame size = 0 */
  66               	.LSM8:
  67 0002 1091 C100 		lds r17,193	 ;  7	*movqi/4	[length = 2]
  68               	.LVL3:
  69 0006 9091 C100 		lds r25,193	 ;  9	*movqi/4	[length = 2]
  70 000a 9860      		ori r25,lo8(8)	 ;  10	iorqi3/2	[length = 1]
  71 000c 9093 C100 		sts 193,r25	 ;  12	*movqi/3	[length = 2]
  72 0010 9091 C100 		lds r25,193	 ;  14	*movqi/4	[length = 2]
  73 0014 9F79      		andi r25,lo8(-97)	 ;  15	andqi3/2	[length = 1]
  74 0016 9093 C100 		sts 193,r25	 ;  17	*movqi/3	[length = 2]
  75               	.LSM9:
  76 001a 60E0      		ldi r22,lo8(0)	 ;  20	*movhi/4	[length = 2]
  77 001c 70E0      		ldi r23,hi8(0)
  78 001e 0E94 0000 		call __kputchar	 ;  21	call_insn/3	[length = 2]
  79               	.LVL4:
  80               	.L9:
  81               	.LSM10:
  82 0022 8091 C000 		lds r24,192	 ;  24	*movqi/4	[length = 2]
  83 0026 86FF      		sbrs r24,6	 ;  29	*sbrx_branch	[length = 2]
  84 0028 00C0      		rjmp .L9
  85 002a 1093 C100 		sts 193,r17	 ;  32	*movqi/3	[length = 2]
  86               	/* epilogue start */
  87               	.LSM11:
  88 002e 1F91      		pop r17	 ;  47	popqi	[length = 1]
  89               	.LVL5:
  90 0030 0895      		ret	 ;  48	return_from_epilogue	[length = 1]
  91               	.LFE5:
  93               		.section	.text.kputs_P,"ax",@progbits
  94               	.global	kputs_P
  96               	kputs_P:
  97               	.LFB8:
  98               	.LSM12:
  99               	.LVL6:
 100 0000 1F93      		push r17	 ;  61	*pushqi/1	[length = 1]
 101 0002 CF93      		push r28	 ;  62	*pushqi/1	[length = 1]
 102 0004 DF93      		push r29	 ;  63	*pushqi/1	[length = 1]
 103               	/* prologue: function */
 104               	/* frame size = 0 */
 105 0006 EC01      		movw r28,r24	 ;  3	*movhi/1	[length = 1]
 106               	.LSM13:
 107 0008 1091 C100 		lds r17,193	 ;  8	*movqi/4	[length = 2]
 108               	.LVL7:
 109 000c 8091 C100 		lds r24,193	 ;  10	*movqi/4	[length = 2]
 110               	.LVL8:
 111 0010 8860      		ori r24,lo8(8)	 ;  11	iorqi3/2	[length = 1]
 112 0012 8093 C100 		sts 193,r24	 ;  13	*movqi/3	[length = 2]
 113 0016 8091 C100 		lds r24,193	 ;  15	*movqi/4	[length = 2]
 114 001a 8F79      		andi r24,lo8(-97)	 ;  16	andqi3/2	[length = 1]
 115 001c 8093 C100 		sts 193,r24	 ;  18	*movqi/3	[length = 2]
 116 0020 00C0      		rjmp .L13	 ;  71	jump	[length = 1]
 117               	.LVL9:
 118               	.L14:
 119               	.LSM14:
 120 0022 60E0      		ldi r22,lo8(0)	 ;  24	*movhi/4	[length = 2]
 121 0024 70E0      		ldi r23,hi8(0)
 122 0026 0E94 0000 		call __kputchar	 ;  25	call_insn/3	[length = 2]
 123               	.LVL10:
 124               	.L13:
 125 002a FE01      		movw r30,r28	 ;  28	*movhi/1	[length = 1]
 126               	.LVL11:
 127               	.LBB10:
 128               	.LSM15:
 129 002c 2196      		adiw r28,1	 ;  29	*addhi3/2	[length = 1]
 130               	/* #APP */
 131               	 ;  150 "bertos/drv/kdebug.c" 1
 132 002e 8491      		lpm r24, Z
 133               		
 134               	 ;  0 "" 2
 135               	.LVL12:
 136               	/* #NOAPP */
 137               	.LBE10:
 138 0030 8823      		tst r24	 ;  33	tstqi	[length = 1]
 139 0032 01F4      		brne .L14	 ;  34	branch	[length = 1]
 140               	.L17:
 141               	.LSM16:
 142 0034 8091 C000 		lds r24,192	 ;  37	*movqi/4	[length = 2]
 143               	.LVL13:
 144 0038 86FF      		sbrs r24,6	 ;  42	*sbrx_branch	[length = 2]
 145 003a 00C0      		rjmp .L17
 146 003c 1093 C100 		sts 193,r17	 ;  45	*movqi/3	[length = 2]
 147               	/* epilogue start */
 148               	.LSM17:
 149 0040 DF91      		pop r29	 ;  66	popqi	[length = 1]
 150 0042 CF91      		pop r28	 ;  67	popqi	[length = 1]
 151               	.LVL14:
 152 0044 1F91      		pop r17	 ;  68	popqi	[length = 1]
 153               	.LVL15:
 154 0046 0895      		ret	 ;  69	return_from_epilogue	[length = 1]
 155               	.LFE8:
 157               		.section	.text.kdbg_init,"ax",@progbits
 158               	.global	kdbg_init
 160               	kdbg_init:
 161               	.LFB3:
 162               	.LSM18:
 163               	/* prologue: function */
 164               	/* frame size = 0 */
 165               	.LBB11:
 166               	.LBB12:
 167               	.LSM19:
 168 0000 1092 C500 		sts 197,__zero_reg__	 ;  6	*movqi/3	[length = 2]
 169               	.LSM20:
 170 0004 88E0      		ldi r24,lo8(8)	 ;  8	*movqi/2	[length = 1]
 171 0006 8093 C400 		sts 196,r24	 ;  9	*movqi/3	[length = 2]
 172               	.LSM21:
 173 000a 8093 C100 		sts 193,r24	 ;  12	*movqi/3	[length = 2]
 174               	.LBE12:
 175               	.LBE11:
 176               	.LSM22:
 177 000e 80E0      		ldi r24,lo8(__c.1325)	 ;  15	*movhi/4	[length = 2]
 178 0010 90E0      		ldi r25,hi8(__c.1325)
 179 0012 0E94 0000 		call kputs_P	 ;  16	call_insn/3	[length = 2]
 180               	/* epilogue start */
 181               	.LSM23:
 182 0016 0895      		ret	 ;  28	return	[length = 1]
 183               	.LFE3:
 185               		.section	.text.kputnum,"ax",@progbits
 186               	.global	kputnum
 188               	kputnum:
 189               	.LFB9:
 190               	.LSM24:
 191               	.LVL16:
 192 0000 CF92      		push r12	 ;  102	*pushqi/1	[length = 1]
 193 0002 DF92      		push r13	 ;  103	*pushqi/1	[length = 1]
 194 0004 EF92      		push r14	 ;  104	*pushqi/1	[length = 1]
 195 0006 FF92      		push r15	 ;  105	*pushqi/1	[length = 1]
 196 0008 0F93      		push r16	 ;  106	*pushqi/1	[length = 1]
 197 000a 1F93      		push r17	 ;  107	*pushqi/1	[length = 1]
 198 000c CF93      		push r28	 ;  108	*pushqi/1	[length = 1]
 199 000e DF93      		push r29	 ;  109	*pushqi/1	[length = 1]
 200               	/* prologue: function */
 201               	/* frame size = 0 */
 202 0010 6C01      		movw r12,r24	 ;  129	*movhi/1	[length = 1]
 203               	.LVL17:
 204               	.LSM25:
 205 0012 00E0      		ldi r16,lo8(0)	 ;  6	*movhi/4	[length = 2]
 206 0014 10E0      		ldi r17,hi8(0)
 207               	.LVL18:
 208 0016 C0E1      		ldi r28,lo8(10000)	 ;  7	*movhi/4	[length = 2]
 209 0018 D7E2      		ldi r29,hi8(10000)
 210               	.LVL19:
 211 001a EE24      		clr r14	 ;  8	*movhi/5	[length = 2]
 212 001c FF24      		clr r15
 213               	.LVL20:
 214               	.L24:
 215               	.LSM26:
 216 001e C601      		movw r24,r12	 ;  128	*movhi/1	[length = 1]
 217 0020 BE01      		movw r22,r28	 ;  11	*movhi/1	[length = 1]
 218 0022 0E94 0000 		call __divmodhi4	 ;  12	*divmodhi4_call	[length = 2]
 219 0026 9B01      		movw r18,r22	 ;  127	*movhi/1	[length = 1]
 220               	.LVL21:
 221               	.LSM27:
 222 0028 C601      		movw r24,r12	 ;  126	*movhi/1	[length = 1]
 223 002a BE01      		movw r22,r28	 ;  17	*movhi/1	[length = 1]
 224 002c 0E94 0000 		call __divmodhi4	 ;  18	*divmodhi4_call	[length = 2]
 225 0030 6C01      		movw r12,r24	 ;  125	*movhi/1	[length = 1]
 226               	.LSM28:
 227 0032 2115      		cp r18,__zero_reg__	 ;  22	tsthi/2	[length = 2]
 228 0034 3105      		cpc r19,__zero_reg__
 229               	.LVL22:
 230 0036 01F4      		brne .L22	 ;  23	branch	[length = 1]
 231 0038 0115      		cp r16,__zero_reg__	 ;  25	tsthi/2	[length = 2]
 232 003a 1105      		cpc r17,__zero_reg__
 233 003c 01F4      		brne .L22	 ;  26	branch	[length = 1]
 234 003e C130      		cpi r28,1	 ;  28	cmphi/2	[length = 2]
 235 0040 D105      		cpc r29,__zero_reg__
 236 0042 01F4      		brne .L23	 ;  29	branch	[length = 1]
 237               	.L22:
 238               	.LSM29:
 239 0044 822F      		mov r24,r18	 ;  101	*movqi/1	[length = 1]
 240               	.LVL23:
 241 0046 805D      		subi r24,lo8(-(48))	 ;  34	addqi3/2	[length = 1]
 242 0048 0E94 0000 		call kputchar	 ;  35	call_insn/3	[length = 2]
 243               	.LSM30:
 244 004c 0F5F      		subi r16,lo8(-(1))	 ;  36	*addhi3/4	[length = 2]
 245 004e 1F4F      		sbci r17,hi8(-(1))
 246               	.LVL24:
 247               	.L23:
 248               	.LSM31:
 249 0050 CE01      		movw r24,r28	 ;  40	*movhi/1	[length = 1]
 250 0052 6AE0      		ldi r22,lo8(10)	 ;  41	*movhi/4	[length = 2]
 251 0054 70E0      		ldi r23,hi8(10)
 252 0056 0E94 0000 		call __divmodhi4	 ;  42	*divmodhi4_call	[length = 2]
 253 005a EB01      		movw r28,r22	 ;  99	*movhi/1	[length = 1]
 254 005c 0894      		sec	 ;  46	*addhi3/5	[length = 3]
 255 005e E11C      		adc r14,__zero_reg__
 256 0060 F11C      		adc r15,__zero_reg__
 257 0062 85E0      		ldi r24,lo8(5)	 ;  48	cmphi/4	[length = 3]
 258 0064 E816      		cp r14,r24
 259 0066 F104      		cpc r15,__zero_reg__
 260 0068 01F4      		brne .L24	 ;  49	branch	[length = 1]
 261               	.LSM32:
 262 006a C801      		movw r24,r16	 ;  122	*movhi/1	[length = 1]
 263               	.LVL25:
 264               	/* epilogue start */
 265 006c DF91      		pop r29	 ;  112	popqi	[length = 1]
 266 006e CF91      		pop r28	 ;  113	popqi	[length = 1]
 267               	.LVL26:
 268 0070 1F91      		pop r17	 ;  114	popqi	[length = 1]
 269 0072 0F91      		pop r16	 ;  115	popqi	[length = 1]
 270 0074 FF90      		pop r15	 ;  116	popqi	[length = 1]
 271 0076 EF90      		pop r14	 ;  117	popqi	[length = 1]
 272 0078 DF90      		pop r13	 ;  118	popqi	[length = 1]
 273 007a CF90      		pop r12	 ;  119	popqi	[length = 1]
 274 007c 0895      		ret	 ;  120	return_from_epilogue	[length = 1]
 275               	.LFE9:
 277               		.section	.text.klocation,"ax",@progbits
 279               	klocation:
 280               	.LFB10:
 281               	.LSM33:
 282               	.LVL27:
 283 0000 0F93      		push r16	 ;  32	*pushqi/1	[length = 1]
 284 0002 1F93      		push r17	 ;  33	*pushqi/1	[length = 1]
 285               	/* prologue: function */
 286               	/* frame size = 0 */
 287 0004 8B01      		movw r16,r22	 ;  3	*movhi/1	[length = 1]
 288               	.LSM34:
 289 0006 0E94 0000 		call kputs_P	 ;  9	call_insn/3	[length = 2]
 290               	.LVL28:
 291               	.LSM35:
 292 000a 8AE3      		ldi r24,lo8(58)	 ;  11	*movqi/2	[length = 1]
 293 000c 0E94 0000 		call kputchar	 ;  12	call_insn/3	[length = 2]
 294               	.LSM36:
 295 0010 C801      		movw r24,r16	 ;  14	*movhi/1	[length = 1]
 296 0012 0E94 0000 		call kputnum	 ;  15	call_value_insn/3	[length = 2]
 297               	.LSM37:
 298 0016 80E0      		ldi r24,lo8(__c.1423)	 ;  18	*movhi/4	[length = 2]
 299 0018 90E0      		ldi r25,hi8(__c.1423)
 300 001a 0E94 0000 		call kputs_P	 ;  19	call_insn/3	[length = 2]
 301               	/* epilogue start */
 302               	.LSM38:
 303 001e 1F91      		pop r17	 ;  36	popqi	[length = 1]
 304 0020 0F91      		pop r16	 ;  37	popqi	[length = 1]
 305               	.LVL29:
 306 0022 0895      		ret	 ;  38	return_from_epilogue	[length = 1]
 307               	.LFE10:
 309               		.section	.text.__bassert_P,"ax",@progbits
 310               	.global	__bassert_P
 312               	__bassert_P:
 313               	.LFB11:
 314               	.LSM39:
 315               	.LVL30:
 316 0000 0F93      		push r16	 ;  41	*pushqi/1	[length = 1]
 317 0002 1F93      		push r17	 ;  42	*pushqi/1	[length = 1]
 318               	/* prologue: function */
 319               	/* frame size = 0 */
 320 0004 8C01      		movw r16,r24	 ;  2	*movhi/1	[length = 1]
 321 0006 CB01      		movw r24,r22	 ;  3	*movhi/1	[length = 1]
 322               	.LVL31:
 323               	.LSM40:
 324 0008 BA01      		movw r22,r20	 ;  10	*movhi/1	[length = 1]
 325               	.LVL32:
 326 000a 0E94 0000 		call klocation	 ;  11	call_insn/3	[length = 2]
 327               	.LVL33:
 328               	.LSM41:
 329 000e 80E0      		ldi r24,lo8(__c.1430)	 ;  14	*movhi/4	[length = 2]
 330 0010 90E0      		ldi r25,hi8(__c.1430)
 331 0012 0E94 0000 		call kputs_P	 ;  15	call_insn/3	[length = 2]
 332               	.LSM42:
 333 0016 C801      		movw r24,r16	 ;  17	*movhi/1	[length = 1]
 334 0018 0E94 0000 		call kputs_P	 ;  18	call_insn/3	[length = 2]
 335               	.LSM43:
 336 001c 8AE0      		ldi r24,lo8(10)	 ;  20	*movqi/2	[length = 1]
 337 001e 0E94 0000 		call kputchar	 ;  21	call_insn/3	[length = 2]
 338               	.LSM44:
 339 0022 81E0      		ldi r24,lo8(1)	 ;  26	*movhi/4	[length = 2]
 340 0024 90E0      		ldi r25,hi8(1)
 341               	/* epilogue start */
 342 0026 1F91      		pop r17	 ;  45	popqi	[length = 1]
 343 0028 0F91      		pop r16	 ;  46	popqi	[length = 1]
 344               	.LVL34:
 345 002a 0895      		ret	 ;  47	return_from_epilogue	[length = 1]
 346               	.LFE11:
 348               		.section	.text.__init_wall,"ax",@progbits
 349               	.global	__init_wall
 351               	__init_wall:
 352               	.LFB15:
 353               	.LSM45:
 354               	.LVL35:
 355               	/* prologue: function */
 356               	/* frame size = 0 */
 357 0000 FC01      		movw r30,r24	 ;  33	*movhi/1	[length = 1]
 358               	.LSM46:
 359 0002 CB01      		movw r24,r22	 ;  79	*movhi/1	[length = 1]
 360               	.LVL36:
 361               	.LSM47:
 362 0004 2EEF      		ldi r18,lo8(-1414673666)	 ;  42	*movsi/5	[length = 4]
 363 0006 3AEC      		ldi r19,hi8(-1414673666)
 364 0008 4DEA      		ldi r20,hlo8(-1414673666)
 365 000a 5BEA      		ldi r21,hhi8(-1414673666)
 366 000c 00C0      		rjmp .L32	 ;  81	jump	[length = 1]
 367               	.L33:
 368 000e 2193      		st Z+,r18	 ;  43	*movsi/4	[length = 4]
 369 0010 3193      		st Z+,r19
 370 0012 4193      		st Z+,r20
 371 0014 5193      		st Z+,r21
 372 0016 0197      		sbiw r24,1	 ;  45	*addhi3/3	[length = 1]
 373               	.L32:
 374               	.LSM48:
 375 0018 0097      		sbiw r24,0	 ;  49	tsthi/1	[length = 1]
 376 001a 01F4      		brne .L33	 ;  50	branch	[length = 1]
 377               	/* epilogue start */
 378               	.LSM49:
 379 001c 0895      		ret	 ;  76	return	[length = 1]
 380               	.LFE15:
 382               		.section	.text.kprintf_P,"ax",@progbits
 383               	.global	kprintf_P
 385               	kprintf_P:
 386               	.LFB7:
 387               	.LSM50:
 388               	.LVL37:
 389 0000 1F93      		push r17	 ;  56	*pushqi/1	[length = 1]
 390 0002 DF93      		push r29	 ;  57	*pushhi/1	[length = 2]
 391 0004 CF93      		push r28
 392 0006 CDB7      		in r28,__SP_L__	 ;  58	*movhi_sp/2	[length = 2]
 393 0008 DEB7      		in r29,__SP_H__
 394               	/* prologue: function */
 395               	/* frame size = 0 */
 396 000a FE01      		movw r30,r28	 ;  55	*movhi/1	[length = 1]
 397 000c 3696      		adiw r30,6	 ;  53	*addhi3/2	[length = 1]
 398 000e 8191      		ld r24,Z+	 ;  2	*movhi/2	[length = 2]
 399 0010 9191      		ld r25,Z+
 400               	.LBB13:
 401               	.LBB14:
 402               	.LSM51:
 403 0012 1091 C100 		lds r17,193	 ;  9	*movqi/4	[length = 2]
 404               	.LVL38:
 405 0016 2091 C100 		lds r18,193	 ;  11	*movqi/4	[length = 2]
 406 001a 2860      		ori r18,lo8(8)	 ;  12	iorqi3/2	[length = 1]
 407 001c 2093 C100 		sts 193,r18	 ;  14	*movqi/3	[length = 2]
 408 0020 2091 C100 		lds r18,193	 ;  16	*movqi/4	[length = 2]
 409 0024 2F79      		andi r18,lo8(-97)	 ;  17	andqi3/2	[length = 1]
 410 0026 2093 C100 		sts 193,r18	 ;  19	*movqi/3	[length = 2]
 411               	.LSM52:
 412 002a 60E0      		ldi r22,lo8(gs(__kputchar))	 ;  23	*movhi/4	[length = 2]
 413 002c 70E0      		ldi r23,hi8(gs(__kputchar))
 414 002e 40E0      		ldi r20,lo8(0)	 ;  24	*movhi/4	[length = 2]
 415 0030 50E0      		ldi r21,hi8(0)
 416 0032 9F01      		movw r18,r30	 ;  65	*movhi/1	[length = 1]
 417 0034 0E94 0000 		call _formatted_write_P	 ;  26	call_value_insn/3	[length = 2]
 418               	.LVL39:
 419               	.L36:
 420               	.LSM53:
 421 0038 8091 C000 		lds r24,192	 ;  29	*movqi/4	[length = 2]
 422 003c 86FF      		sbrs r24,6	 ;  34	*sbrx_branch	[length = 2]
 423 003e 00C0      		rjmp .L36
 424 0040 1093 C100 		sts 193,r17	 ;  37	*movqi/3	[length = 2]
 425               	/* epilogue start */
 426               	.LBE14:
 427               	.LBE13:
 428               	.LSM54:
 429 0044 CF91      		pop r28	 ;  61	pophi	[length = 2]
 430 0046 DF91      		pop r29
 431 0048 1F91      		pop r17	 ;  62	popqi	[length = 1]
 432               	.LVL40:
 433 004a 0895      		ret	 ;  63	return_from_epilogue	[length = 1]
 434               	.LFE7:
 436               		.section	.text.kdump,"ax",@progbits
 437               	.global	kdump
 439               	kdump:
 440               	.LFB17:
 441               	.LSM55:
 442               	.LVL41:
 443 0000 EF92      		push r14	 ;  91	*pushqi/1	[length = 1]
 444 0002 FF92      		push r15	 ;  92	*pushqi/1	[length = 1]
 445 0004 0F93      		push r16	 ;  93	*pushqi/1	[length = 1]
 446 0006 1F93      		push r17	 ;  94	*pushqi/1	[length = 1]
 447 0008 CF93      		push r28	 ;  95	*pushqi/1	[length = 1]
 448 000a DF93      		push r29	 ;  96	*pushqi/1	[length = 1]
 449               	/* prologue: function */
 450               	/* frame size = 0 */
 451 000c EB01      		movw r28,r22	 ;  31	*movhi/1	[length = 1]
 452               	.LSM56:
 453 000e 8C01      		movw r16,r24	 ;  85	*movhi/1	[length = 1]
 454               	.LVL42:
 455               	.LSM57:
 456 0010 80E0      		ldi r24,lo8(__c.1491)	 ;  107	*reload_inhi	[length = 4]
 457 0012 E82E      		mov r14,r24
 458 0014 80E0      		ldi r24,hi8(__c.1491)
 459 0016 F82E      		mov r15,r24
 460               	.LVL43:
 461 0018 00C0      		rjmp .L40	 ;  110	jump	[length = 1]
 462               	.LVL44:
 463               	.L41:
 464 001a D801      		movw r26,r16	 ;  87	*movhi/1	[length = 1]
 465 001c 8D91      		ld r24,X+	 ;  39	*movqi/4	[length = 1]
 466 001e 8D01      		movw r16,r26	 ;  88	*movhi/1	[length = 1]
 467 0020 00D0      		rcall .	 ;  42	*addhi3_sp_R_pc2	[length = 2]
 468 0022 00D0      		rcall .
 469 0024 EDB7      		in r30,__SP_L__	 ;  89	*movhi_sp/2	[length = 2]
 470 0026 FEB7      		in r31,__SP_H__
 471 0028 3196      		adiw r30,1	 ;  66	*addhi3/2	[length = 1]
 472 002a ADB7      		in r26,__SP_L__	 ;  90	*movhi_sp/2	[length = 2]
 473 002c BEB7      		in r27,__SP_H__
 474 002e 1296      		adiw r26,1+1	 ;  45	*movhi/3	[length = 4]
 475 0030 FC92      		st X,r15
 476 0032 EE92      		st -X,r14
 477 0034 1197      		sbiw r26,1
 478 0036 8283      		std Z+2,r24	 ;  76	*movqi/3	[length = 1]
 479 0038 1382      		std Z+3,__zero_reg__	 ;  77	*movqi/3	[length = 1]
 480 003a 0E94 0000 		call kprintf_P	 ;  47	call_insn/3	[length = 2]
 481 003e 2197      		sbiw r28,1	 ;  48	*addhi3/3	[length = 1]
 482 0040 0F90      		pop __tmp_reg__	 ;  49	*addhi3_sp_R_pc2	[length = 4]
 483 0042 0F90      		pop __tmp_reg__
 484 0044 0F90      		pop __tmp_reg__
 485 0046 0F90      		pop __tmp_reg__
 486               	.LVL45:
 487               	.L40:
 488               	.LSM58:
 489 0048 2097      		sbiw r28,0	 ;  53	tsthi/1	[length = 1]
 490 004a 01F4      		brne .L41	 ;  54	branch	[length = 1]
 491               	.LSM59:
 492 004c 8AE0      		ldi r24,lo8(10)	 ;  57	*movqi/2	[length = 1]
 493 004e 0E94 0000 		call kputchar	 ;  58	call_insn/3	[length = 2]
 494               	/* epilogue start */
 495               	.LSM60:
 496 0052 DF91      		pop r29	 ;  99	popqi	[length = 1]
 497 0054 CF91      		pop r28	 ;  100	popqi	[length = 1]
 498               	.LVL46:
 499 0056 1F91      		pop r17	 ;  101	popqi	[length = 1]
 500 0058 0F91      		pop r16	 ;  102	popqi	[length = 1]
 501               	.LVL47:
 502 005a FF90      		pop r15	 ;  103	popqi	[length = 1]
 503 005c EF90      		pop r14	 ;  104	popqi	[length = 1]
 504 005e 0895      		ret	 ;  105	return_from_epilogue	[length = 1]
 505               	.LFE17:
 507               		.section	.text.__check_wall_P,"ax",@progbits
 508               	.global	__check_wall_P
 510               	__check_wall_P:
 511               	.LFB16:
 512               	.LSM61:
 513               	.LVL48:
 514 0000 6F92      		push r6	 ;  104	*pushqi/1	[length = 1]
 515 0002 7F92      		push r7	 ;  105	*pushqi/1	[length = 1]
 516 0004 8F92      		push r8	 ;  106	*pushqi/1	[length = 1]
 517 0006 9F92      		push r9	 ;  107	*pushqi/1	[length = 1]
 518 0008 AF92      		push r10	 ;  108	*pushqi/1	[length = 1]
 519 000a BF92      		push r11	 ;  109	*pushqi/1	[length = 1]
 520 000c CF92      		push r12	 ;  110	*pushqi/1	[length = 1]
 521 000e DF92      		push r13	 ;  111	*pushqi/1	[length = 1]
 522 0010 EF92      		push r14	 ;  112	*pushqi/1	[length = 1]
 523 0012 FF92      		push r15	 ;  113	*pushqi/1	[length = 1]
 524 0014 0F93      		push r16	 ;  114	*pushqi/1	[length = 1]
 525               	.LVL49:
 526 0016 1F93      		push r17	 ;  115	*pushqi/1	[length = 1]
 527 0018 CF93      		push r28	 ;  116	*pushqi/1	[length = 1]
 528 001a DF93      		push r29	 ;  117	*pushqi/1	[length = 1]
 529               	/* prologue: function */
 530               	/* frame size = 0 */
 531 001c 4B01      		movw r8,r22	 ;  3	*movhi/1	[length = 1]
 532 001e 5A01      		movw r10,r20	 ;  4	*movhi/1	[length = 1]
 533 0020 6901      		movw r12,r18	 ;  5	*movhi/1	[length = 1]
 534 0022 7801      		movw r14,r16	 ;  6	*movhi/1	[length = 1]
 535               	.LVL50:
 536               	.LSM62:
 537 0024 EC01      		movw r28,r24	 ;  96	*movhi/1	[length = 1]
 538               	.LVL51:
 539 0026 00E0      		ldi r16,lo8(0)	 ;  11	*movhi/4	[length = 2]
 540 0028 10E0      		ldi r17,hi8(0)
 541               	.LVL52:
 542 002a 20E0      		ldi r18,lo8(0)	 ;  12	*movhi/4	[length = 2]
 543 002c 30E0      		ldi r19,hi8(0)
 544               	.LVL53:
 545               	.LSM63:
 546 002e 90E0      		ldi r25,lo8(__c.1476)	 ;  137	*reload_inhi	[length = 4]
 547 0030 692E      		mov r6,r25
 548 0032 90E0      		ldi r25,hi8(__c.1476)
 549 0034 792E      		mov r7,r25
 550 0036 00C0      		rjmp .L44	 ;  140	jump	[length = 1]
 551               	.LVL54:
 552               	.L46:
 553               	.LSM64:
 554 0038 8881      		ld r24,Y	 ;  17	*movsi/3	[length = 4]
 555 003a 9981      		ldd r25,Y+1
 556 003c AA81      		ldd r26,Y+2
 557 003e BB81      		ldd r27,Y+3
 558 0040 8E5F      		subi r24,lo8(-1414673666)	 ;  18	cmpsi/3	[length = 7]
 559 0042 9A4C      		sbci r25,hi8(-1414673666)
 560 0044 AD4A      		sbci r26,hlo8(-1414673666)
 561 0046 BB4A      		sbci r27,hhi8(-1414673666)
 562 0048 01F0      		breq .L45	 ;  19	branch	[length = 1]
 563               	.LSM65:
 564 004a C601      		movw r24,r12	 ;  22	*movhi/1	[length = 1]
 565 004c B701      		movw r22,r14	 ;  23	*movhi/1	[length = 1]
 566 004e 0E94 0000 		call klocation	 ;  24	call_insn/3	[length = 2]
 567               	.LVL55:
 568               	.LSM66:
 569 0052 80E0      		ldi r24,lo8(__c.1474)	 ;  87	*movhi/4	[length = 2]
 570 0054 90E0      		ldi r25,hi8(__c.1474)
 571 0056 0E94 0000 		call kputs_P	 ;  28	call_insn/3	[length = 2]
 572               	.LSM67:
 573 005a C501      		movw r24,r10	 ;  30	*movhi/1	[length = 1]
 574 005c 0E94 0000 		call kputs_P	 ;  31	call_insn/3	[length = 2]
 575               	.LSM68:
 576 0060 8DB7      		in r24,__SP_L__	 ;  98	*movhi_sp/2	[length = 2]
 577 0062 9EB7      		in r25,__SP_H__
 578 0064 0A97      		sbiw r24,10	 ;  32	*addhi3/3	[length = 1]
 579 0066 0FB6      		in __tmp_reg__,__SREG__	 ;  99	*movhi_sp/1	[length = 5]
 580 0068 F894      		cli
 581 006a 9EBF      		out __SP_H__,r25
 582 006c 0FBE      		out __SREG__,__tmp_reg__
 583 006e 8DBF      		out __SP_L__,r24
 584 0070 EDB7      		in r30,__SP_L__	 ;  100	*movhi_sp/2	[length = 2]
 585 0072 FEB7      		in r31,__SP_H__
 586 0074 3196      		adiw r30,1	 ;  70	*addhi3/2	[length = 1]
 587 0076 ADB7      		in r26,__SP_L__	 ;  101	*movhi_sp/2	[length = 2]
 588 0078 BEB7      		in r27,__SP_H__
 589 007a 1296      		adiw r26,1+1	 ;  35	*movhi/3	[length = 4]
 590 007c 7C92      		st X,r7
 591 007e 6E92      		st -X,r6
 592 0080 1197      		sbiw r26,1
 593 0082 1383      		std Z+3,r17	 ;  36	*movhi/3	[length = 2]
 594 0084 0283      		std Z+2,r16
 595 0086 C483      		std Z+4,r28	 ;  80	*movqi/3	[length = 1]
 596 0088 D583      		std Z+5,r29	 ;  81	*movqi/3	[length = 1]
 597 008a 8881      		ld r24,Y	 ;  38	*movsi/3	[length = 4]
 598 008c 9981      		ldd r25,Y+1
 599 008e AA81      		ldd r26,Y+2
 600 0090 BB81      		ldd r27,Y+3
 601 0092 8683      		std Z+6,r24	 ;  39	*movsi/4	[length = 4]
 602 0094 9783      		std Z+7,r25
 603 0096 A087      		std Z+8,r26
 604 0098 B187      		std Z+9,r27
 605 009a 0E94 0000 		call kprintf_P	 ;  40	call_insn/3	[length = 2]
 606 009e 21E0      		ldi r18,lo8(1)	 ;  89	*movhi/4	[length = 2]
 607 00a0 30E0      		ldi r19,hi8(1)
 608               	.LVL56:
 609 00a2 8DB7      		in r24,__SP_L__	 ;  102	*movhi_sp/2	[length = 2]
 610 00a4 9EB7      		in r25,__SP_H__
 611 00a6 0A96      		adiw r24,10	 ;  42	*addhi3/2	[length = 1]
 612 00a8 0FB6      		in __tmp_reg__,__SREG__	 ;  103	*movhi_sp/1	[length = 5]
 613 00aa F894      		cli
 614 00ac 9EBF      		out __SP_H__,r25
 615 00ae 0FBE      		out __SREG__,__tmp_reg__
 616 00b0 8DBF      		out __SP_L__,r24
 617               	.LVL57:
 618               	.L45:
 619               	.LSM69:
 620 00b2 0F5F      		subi r16,lo8(-(1))	 ;  45	*addhi3/4	[length = 2]
 621 00b4 1F4F      		sbci r17,hi8(-(1))
 622 00b6 2496      		adiw r28,4	 ;  46	*addhi3/2	[length = 1]
 623               	.LVL58:
 624               	.L44:
 625 00b8 0815      		cp r16,r8	 ;  50	cmphi/1	[length = 2]
 626 00ba 1905      		cpc r17,r9
 627 00bc 04F4      		brge .+2	 ;  51	branch	[length = 2]
 628 00be 00C0      		rjmp .L46
 629               	.LSM70:
 630 00c0 C901      		movw r24,r18	 ;  136	*movhi/1	[length = 1]
 631               	.LVL59:
 632               	/* epilogue start */
 633 00c2 DF91      		pop r29	 ;  120	popqi	[length = 1]
 634 00c4 CF91      		pop r28	 ;  121	popqi	[length = 1]
 635 00c6 1F91      		pop r17	 ;  122	popqi	[length = 1]
 636 00c8 0F91      		pop r16	 ;  123	popqi	[length = 1]
 637               	.LVL60:
 638 00ca FF90      		pop r15	 ;  124	popqi	[length = 1]
 639 00cc EF90      		pop r14	 ;  125	popqi	[length = 1]
 640               	.LVL61:
 641 00ce DF90      		pop r13	 ;  126	popqi	[length = 1]
 642 00d0 CF90      		pop r12	 ;  127	popqi	[length = 1]
 643               	.LVL62:
 644 00d2 BF90      		pop r11	 ;  128	popqi	[length = 1]
 645 00d4 AF90      		pop r10	 ;  129	popqi	[length = 1]
 646               	.LVL63:
 647 00d6 9F90      		pop r9	 ;  130	popqi	[length = 1]
 648 00d8 8F90      		pop r8	 ;  131	popqi	[length = 1]
 649               	.LVL64:
 650 00da 7F90      		pop r7	 ;  132	popqi	[length = 1]
 651 00dc 6F90      		pop r6	 ;  133	popqi	[length = 1]
 652 00de 0895      		ret	 ;  134	return_from_epilogue	[length = 1]
 653               	.LFE16:
 655               		.section	.text.__invalid_ptr_P,"ax",@progbits
 656               	.global	__invalid_ptr_P
 658               	__invalid_ptr_P:
 659               	.LFB14:
 660               	.LSM71:
 661               	.LVL65:
 662 0000 EF92      		push r14	 ;  47	*pushqi/1	[length = 1]
 663 0002 FF92      		push r15	 ;  48	*pushqi/1	[length = 1]
 664 0004 0F93      		push r16	 ;  49	*pushqi/1	[length = 1]
 665 0006 1F93      		push r17	 ;  50	*pushqi/1	[length = 1]
 666               	/* prologue: function */
 667               	/* frame size = 0 */
 668 0008 7C01      		movw r14,r24	 ;  2	*movhi/1	[length = 1]
 669 000a 8B01      		movw r16,r22	 ;  3	*movhi/1	[length = 1]
 670 000c CA01      		movw r24,r20	 ;  4	*movhi/1	[length = 1]
 671               	.LVL66:
 672               	.LSM72:
 673 000e B901      		movw r22,r18	 ;  11	*movhi/1	[length = 1]
 674               	.LVL67:
 675 0010 0E94 0000 		call klocation	 ;  12	call_insn/3	[length = 2]
 676               	.LVL68:
 677               	.LSM73:
 678 0014 80E0      		ldi r24,lo8(__c.1452)	 ;  15	*movhi/4	[length = 2]
 679 0016 90E0      		ldi r25,hi8(__c.1452)
 680 0018 0E94 0000 		call kputs_P	 ;  16	call_insn/3	[length = 2]
 681               	.LSM74:
 682 001c C801      		movw r24,r16	 ;  18	*movhi/1	[length = 1]
 683 001e 0E94 0000 		call kputs_P	 ;  19	call_insn/3	[length = 2]
 684               	.LSM75:
 685 0022 00D0      		rcall .	 ;  20	*addhi3_sp_R_pc2	[length = 2]
 686 0024 00D0      		rcall .
 687 0026 80E0      		ldi r24,lo8(__c.1454)	 ;  22	*movhi/4	[length = 2]
 688 0028 90E0      		ldi r25,hi8(__c.1454)
 689 002a EDB7      		in r30,__SP_L__	 ;  46	*movhi_sp/2	[length = 2]
 690 002c FEB7      		in r31,__SP_H__
 691 002e 9283      		std Z+2,r25	 ;  23	*movhi/3	[length = 2]
 692 0030 8183      		std Z+1,r24
 693 0032 F482      		std Z+4,r15	 ;  24	*movhi/3	[length = 2]
 694 0034 E382      		std Z+3,r14
 695 0036 0E94 0000 		call kprintf_P	 ;  25	call_insn/3	[length = 2]
 696 003a 0F90      		pop __tmp_reg__	 ;  27	*addhi3_sp_R_pc2	[length = 4]
 697 003c 0F90      		pop __tmp_reg__
 698 003e 0F90      		pop __tmp_reg__
 699 0040 0F90      		pop __tmp_reg__
 700               	.LSM76:
 701 0042 81E0      		ldi r24,lo8(1)	 ;  31	*movhi/4	[length = 2]
 702 0044 90E0      		ldi r25,hi8(1)
 703               	/* epilogue start */
 704 0046 1F91      		pop r17	 ;  53	popqi	[length = 1]
 705 0048 0F91      		pop r16	 ;  54	popqi	[length = 1]
 706               	.LVL69:
 707 004a FF90      		pop r15	 ;  55	popqi	[length = 1]
 708 004c EF90      		pop r14	 ;  56	popqi	[length = 1]
 709               	.LVL70:
 710 004e 0895      		ret	 ;  57	return_from_epilogue	[length = 1]
 711               	.LFE14:
 713               		.section	.text.__trace_P,"ax",@progbits
 714               	.global	__trace_P
 716               	__trace_P:
 717               	.LFB12:
 718               	.LSM77:
 719               	.LVL71:
 720               	/* prologue: function */
 721               	/* frame size = 0 */
 722               	.LSM78:
 723 0000 00D0      		rcall .	 ;  6	*addhi3_sp_R_pc2	[length = 2]
 724 0002 00D0      		rcall .
 725 0004 20E0      		ldi r18,lo8(__c.1436)	 ;  8	*movhi/4	[length = 2]
 726 0006 30E0      		ldi r19,hi8(__c.1436)
 727 0008 EDB7      		in r30,__SP_L__	 ;  22	*movhi_sp/2	[length = 2]
 728 000a FEB7      		in r31,__SP_H__
 729 000c 3283      		std Z+2,r19	 ;  9	*movhi/3	[length = 2]
 730 000e 2183      		std Z+1,r18
 731 0010 9483      		std Z+4,r25	 ;  10	*movhi/3	[length = 2]
 732 0012 8383      		std Z+3,r24
 733 0014 0E94 0000 		call kprintf_P	 ;  11	call_insn/3	[length = 2]
 734               	.LVL72:
 735 0018 0F90      		pop __tmp_reg__	 ;  12	*addhi3_sp_R_pc2	[length = 4]
 736 001a 0F90      		pop __tmp_reg__
 737 001c 0F90      		pop __tmp_reg__
 738 001e 0F90      		pop __tmp_reg__
 739               	/* epilogue start */
 740               	.LSM79:
 741 0020 0895      		ret	 ;  25	return	[length = 1]
 742               	.LFE12:
 744               		.section	.text.__tracemsg_P,"ax",@progbits
 745               	.global	__tracemsg_P
 747               	__tracemsg_P:
 748               	.LFB13:
 749               	.LSM80:
 750               	.LVL73:
 751 0000 1F93      		push r17	 ;  70	*pushqi/1	[length = 1]
 752 0002 DF93      		push r29	 ;  71	*pushhi/1	[length = 2]
 753 0004 CF93      		push r28
 754 0006 CDB7      		in r28,__SP_L__	 ;  72	*movhi_sp/2	[length = 2]
 755 0008 DEB7      		in r29,__SP_H__
 756               	/* prologue: function */
 757               	/* frame size = 0 */
 758               	.LSM81:
 759 000a 00D0      		rcall .	 ;  7	*addhi3_sp_R_pc2	[length = 2]
 760 000c 00D0      		rcall .
 761 000e 80E0      		ldi r24,lo8(__c.1443)	 ;  9	*movhi/4	[length = 2]
 762 0010 90E0      		ldi r25,hi8(__c.1443)
 763 0012 EDB7      		in r30,__SP_L__	 ;  68	*movhi_sp/2	[length = 2]
 764 0014 FEB7      		in r31,__SP_H__
 765 0016 9283      		std Z+2,r25	 ;  10	*movhi/3	[length = 2]
 766 0018 8183      		std Z+1,r24
 767 001a 8E81      		ldd r24,Y+6	 ;  66	*movhi/2	[length = 2]
 768 001c 9F81      		ldd r25,Y+7
 769 001e 9483      		std Z+4,r25	 ;  11	*movhi/3	[length = 2]
 770 0020 8383      		std Z+3,r24
 771 0022 0E94 0000 		call kprintf_P	 ;  12	call_insn/3	[length = 2]
 772               	.LSM82:
 773 0026 FE01      		movw r30,r28	 ;  69	*movhi/1	[length = 1]
 774 0028 3A96      		adiw r30,10	 ;  13	*addhi3/2	[length = 1]
 775               	.LBB15:
 776               	.LBB16:
 777               	.LSM83:
 778 002a 1091 C100 		lds r17,193	 ;  16	*movqi/4	[length = 2]
 779               	.LVL74:
 780 002e 8091 C100 		lds r24,193	 ;  18	*movqi/4	[length = 2]
 781 0032 8860      		ori r24,lo8(8)	 ;  19	iorqi3/2	[length = 1]
 782 0034 8093 C100 		sts 193,r24	 ;  21	*movqi/3	[length = 2]
 783 0038 8091 C100 		lds r24,193	 ;  23	*movqi/4	[length = 2]
 784 003c 8F79      		andi r24,lo8(-97)	 ;  24	andqi3/2	[length = 1]
 785 003e 8093 C100 		sts 193,r24	 ;  26	*movqi/3	[length = 2]
 786               	.LSM84:
 787 0042 0F90      		pop __tmp_reg__	 ;  27	*addhi3_sp_R_pc2	[length = 4]
 788 0044 0F90      		pop __tmp_reg__
 789 0046 0F90      		pop __tmp_reg__
 790 0048 0F90      		pop __tmp_reg__
 791 004a 8885      		ldd r24,Y+8	 ;  30	*movhi/2	[length = 2]
 792 004c 9985      		ldd r25,Y+9
 793 004e 60E0      		ldi r22,lo8(gs(__kputchar))	 ;  31	*movhi/4	[length = 2]
 794 0050 70E0      		ldi r23,hi8(gs(__kputchar))
 795 0052 40E0      		ldi r20,lo8(0)	 ;  32	*movhi/4	[length = 2]
 796 0054 50E0      		ldi r21,hi8(0)
 797 0056 9F01      		movw r18,r30	 ;  79	*movhi/1	[length = 1]
 798 0058 0E94 0000 		call _formatted_write_P	 ;  34	call_value_insn/3	[length = 2]
 799               	.LVL75:
 800               	.L53:
 801               	.LSM85:
 802 005c 8091 C000 		lds r24,192	 ;  37	*movqi/4	[length = 2]
 803 0060 86FF      		sbrs r24,6	 ;  42	*sbrx_branch	[length = 2]
 804 0062 00C0      		rjmp .L53
 805 0064 1093 C100 		sts 193,r17	 ;  45	*movqi/3	[length = 2]
 806               	.LBE16:
 807               	.LBE15:
 808               	.LSM86:
 809 0068 8AE0      		ldi r24,lo8(10)	 ;  47	*movqi/2	[length = 1]
 810 006a 0E94 0000 		call kputchar	 ;  48	call_insn/3	[length = 2]
 811               	/* epilogue start */
 812               	.LSM87:
 813 006e CF91      		pop r28	 ;  75	pophi	[length = 2]
 814 0070 DF91      		pop r29
 815 0072 1F91      		pop r17	 ;  76	popqi	[length = 1]
 816               	.LVL76:
 817 0074 0895      		ret	 ;  77	return_from_epilogue	[length = 1]
 818               	.LFE13:
 820               		.section	.progmem.data,"a",@progbits
 823               	__c.1491:
 824 0000 2530 3258 		.string	"%02X"
 824      00
 827               	__c.1476:
 828 0005 5B25 645D 		.string	"[%d] (0x%p) = 0x%lx\n"
 828      2028 3078 
 828      2570 2920 
 828      3D20 3078 
 828      256C 780A 
 831               	__c.1474:
 832 001a 5761 6C6C 		.string	"Wall broken: "
 832      2062 726F 
 832      6B65 6E3A 
 832      2000 
 835               	__c.1423:
 836 0028 3A20 00   		.string	": "
 839               	__c.1454:
 840 002b 203D 2030 		.string	" = 0x%p\n"
 840      7825 700A 
 840      00
 843               	__c.1452:
 844 0034 496E 7661 		.string	"Invalid ptr: "
 844      6C69 6420 
 844      7074 723A 
 844      2000 
 847               	__c.1443:
 848 0042 2573 2829 		.string	"%s(): "
 848      3A20 00
 851               	__c.1436:
 852 0049 2573 2829 		.string	"%s()\n"
 852      0A00 
 855               	__c.1430:
 856 004f 4173 7365 		.string	"Assertion failed: "
 856      7274 696F 
 856      6E20 6661 
 856      696C 6564 
 856      3A20 00
 859               	__c.1325:
 860 0062 0A0A 2A2A 		.string	"\n\n*** BeRTOS DBG START ***\n"
 860      2A20 4265 
 860      5254 4F53 
 860      2044 4247 
 860      2053 5441 
 989               	.Letext0:
DEFINED SYMBOLS
                            *ABS*:00000000 kdebug.c
C:\DOCUME~1\develer\IMPOST~1\Temp/ccD2Afhe.s:2      *ABS*:0000003f __SREG__
C:\DOCUME~1\develer\IMPOST~1\Temp/ccD2Afhe.s:3      *ABS*:0000003e __SP_H__
C:\DOCUME~1\develer\IMPOST~1\Temp/ccD2Afhe.s:4      *ABS*:0000003d __SP_L__
C:\DOCUME~1\develer\IMPOST~1\Temp/ccD2Afhe.s:5      *ABS*:00000034 __CCP__
C:\DOCUME~1\develer\IMPOST~1\Temp/ccD2Afhe.s:6      *ABS*:00000000 __tmp_reg__
C:\DOCUME~1\develer\IMPOST~1\Temp/ccD2Afhe.s:7      *ABS*:00000001 __zero_reg__
C:\DOCUME~1\develer\IMPOST~1\Temp/ccD2Afhe.s:18     .text.__kputchar:00000000 __kputchar
C:\DOCUME~1\develer\IMPOST~1\Temp/ccD2Afhe.s:59     .text.kputchar:00000000 kputchar
C:\DOCUME~1\develer\IMPOST~1\Temp/ccD2Afhe.s:96     .text.kputs_P:00000000 kputs_P
C:\DOCUME~1\develer\IMPOST~1\Temp/ccD2Afhe.s:160    .text.kdbg_init:00000000 kdbg_init
C:\DOCUME~1\develer\IMPOST~1\Temp/ccD2Afhe.s:859    .progmem.data:00000062 __c.1325
C:\DOCUME~1\develer\IMPOST~1\Temp/ccD2Afhe.s:188    .text.kputnum:00000000 kputnum
C:\DOCUME~1\develer\IMPOST~1\Temp/ccD2Afhe.s:279    .text.klocation:00000000 klocation
C:\DOCUME~1\develer\IMPOST~1\Temp/ccD2Afhe.s:835    .progmem.data:00000028 __c.1423
C:\DOCUME~1\develer\IMPOST~1\Temp/ccD2Afhe.s:312    .text.__bassert_P:00000000 __bassert_P
C:\DOCUME~1\develer\IMPOST~1\Temp/ccD2Afhe.s:855    .progmem.data:0000004f __c.1430
C:\DOCUME~1\develer\IMPOST~1\Temp/ccD2Afhe.s:351    .text.__init_wall:00000000 __init_wall
C:\DOCUME~1\develer\IMPOST~1\Temp/ccD2Afhe.s:385    .text.kprintf_P:00000000 kprintf_P
C:\DOCUME~1\develer\IMPOST~1\Temp/ccD2Afhe.s:439    .text.kdump:00000000 kdump
C:\DOCUME~1\develer\IMPOST~1\Temp/ccD2Afhe.s:823    .progmem.data:00000000 __c.1491
C:\DOCUME~1\develer\IMPOST~1\Temp/ccD2Afhe.s:510    .text.__check_wall_P:00000000 __check_wall_P
C:\DOCUME~1\develer\IMPOST~1\Temp/ccD2Afhe.s:827    .progmem.data:00000005 __c.1476
C:\DOCUME~1\develer\IMPOST~1\Temp/ccD2Afhe.s:831    .progmem.data:0000001a __c.1474
C:\DOCUME~1\develer\IMPOST~1\Temp/ccD2Afhe.s:658    .text.__invalid_ptr_P:00000000 __invalid_ptr_P
C:\DOCUME~1\develer\IMPOST~1\Temp/ccD2Afhe.s:843    .progmem.data:00000034 __c.1452
C:\DOCUME~1\develer\IMPOST~1\Temp/ccD2Afhe.s:839    .progmem.data:0000002b __c.1454
C:\DOCUME~1\develer\IMPOST~1\Temp/ccD2Afhe.s:716    .text.__trace_P:00000000 __trace_P
C:\DOCUME~1\develer\IMPOST~1\Temp/ccD2Afhe.s:851    .progmem.data:00000049 __c.1436
C:\DOCUME~1\develer\IMPOST~1\Temp/ccD2Afhe.s:747    .text.__tracemsg_P:00000000 __tracemsg_P
C:\DOCUME~1\develer\IMPOST~1\Temp/ccD2Afhe.s:847    .progmem.data:00000042 __c.1443

UNDEFINED SYMBOLS
__divmodhi4
_formatted_write_P
