   1               		.file	"main.c"
   2               	__SREG__ = 0x3f
   3               	__SP_H__ = 0x3e
   4               	__SP_L__ = 0x3d
   5               	__CCP__  = 0x34
   6               	__tmp_reg__ = 0
   7               	__zero_reg__ = 1
  15               	.Ltext0:
  16               		.data
  17               	.LC0:
  18 0000 3E54 6573 		.string	">Test BeRTOS APRS http://www.bertos.org"
  18      7420 4265 
  18      5254 4F53 
  18      2041 5052 
  18      5320 6874 
  19               		.section	.text.main,"ax",@progbits
  20               	.global	main
  22               	main:
  23               	.LFB50:
  24               	.LSM0:
  25 0000 CF92      		push r12	 ;  99	*pushqi/1	[length = 1]
  26 0002 DF92      		push r13	 ;  100	*pushqi/1	[length = 1]
  27 0004 EF92      		push r14	 ;  101	*pushqi/1	[length = 1]
  28 0006 FF92      		push r15	 ;  102	*pushqi/1	[length = 1]
  29 0008 0F93      		push r16	 ;  103	*pushqi/1	[length = 1]
  30 000a 1F93      		push r17	 ;  104	*pushqi/1	[length = 1]
  31               	/* prologue: function */
  32               	/* frame size = 0 */
  33               	.LBB15:
  34               	.LBB16:
  35               	.LSM1:
  36               	/* #APP */
  37               	 ;  82 "aprs/main.c" 1
  38 000c 7894      		sei
  39               	 ;  0 "" 2
  40               	.LSM2:
  41               	/* #NOAPP */
  42 000e 0E94 0000 		call kdbg_init	 ;  7	call_insn/3	[length = 2]
  43               	.LSM3:
  44 0012 0E94 0000 		call timer_init	 ;  9	call_insn/3	[length = 2]
  45               	.LSM4:
  46 0016 80E0      		ldi r24,lo8(afsk)	 ;  12	*movhi/4	[length = 2]
  47 0018 90E0      		ldi r25,hi8(afsk)
  48 001a 60E0      		ldi r22,lo8(0)	 ;  13	*movhi/4	[length = 2]
  49 001c 70E0      		ldi r23,hi8(0)
  50 001e 40E0      		ldi r20,lo8(0)	 ;  14	*movhi/4	[length = 2]
  51 0020 50E0      		ldi r21,hi8(0)
  52 0022 0E94 0000 		call afsk_init	 ;  15	call_insn/3	[length = 2]
  53               	.LSM5:
  54 0026 80E0      		ldi r24,lo8(ax25)	 ;  20	*movhi/4	[length = 2]
  55 0028 90E0      		ldi r25,hi8(ax25)
  56 002a 60E0      		ldi r22,lo8(afsk)	 ;  21	*movhi/4	[length = 2]
  57 002c 70E0      		ldi r23,hi8(afsk)
  58 002e 40E0      		ldi r20,lo8(gs(message_callback))	 ;  22	*movhi/4	[length = 2]
  59 0030 50E0      		ldi r21,hi8(gs(message_callback))
  60 0032 0E94 0000 		call ax25_init	 ;  23	call_insn/3	[length = 2]
  61               	.LSM6:
  62 0036 80E0      		ldi r24,lo8(ser)	 ;  26	*movhi/4	[length = 2]
  63 0038 90E0      		ldi r25,hi8(ser)
  64 003a 60E0      		ldi r22,lo8(0)	 ;  27	*movhi/4	[length = 2]
  65 003c 70E0      		ldi r23,hi8(0)
  66 003e 0E94 0000 		call ser_init	 ;  28	call_insn/3	[length = 2]
  67               	.LSM7:
  68 0042 80E0      		ldi r24,lo8(ser)	 ;  31	*movhi/4	[length = 2]
  69 0044 90E0      		ldi r25,hi8(ser)
  70 0046 40E0      		ldi r20,lo8(115200)	 ;  32	*movsi/5	[length = 4]
  71 0048 52EC      		ldi r21,hi8(115200)
  72 004a 61E0      		ldi r22,hlo8(115200)
  73 004c 70E0      		ldi r23,hhi8(115200)
  74 004e 0E94 0000 		call ser_setbaudrate	 ;  33	call_insn/3	[length = 2]
  75               	.LBE16:
  76               	.LBE15:
  77               	.LBB17:
  78               	.LBB18:
  79               	.LBB19:
  80               	.LSM8:
  81               	/* #APP */
  82               	 ;  131 "bertos/drv/timer.h" 1
  83 0052 8FB7      		in r24,__SREG__
  84 0054 F894      		cli
  85               	 ;  0 "" 2
  86               	.LVL0:
  87               	/* #NOAPP */
  88 0056 C090 0000 		lds r12,_clock	 ;  35	*movsi/3	[length = 8]
  89 005a D090 0000 		lds r13,(_clock)+1
  90 005e E090 0000 		lds r14,(_clock)+2
  91 0062 F090 0000 		lds r15,(_clock)+3
  92               	.LVL1:
  93               	/* #APP */
  94               	 ;  131 "bertos/drv/timer.h" 1
  95 0066 8FBF      		out __SREG__,r24
  96               	 ;  0 "" 2
  97               	.LVL2:
  98               	/* #NOAPP */
  99               	.L6:
 100               	.LBE19:
 101               	.LBE18:
 102               	.LBE17:
 103               	.LSM9:
 104 0068 80E0      		ldi r24,lo8(ax25)	 ;  89	*movhi/4	[length = 2]
 105 006a 90E0      		ldi r25,hi8(ax25)
 106               	.LVL3:
 107 006c 0E94 0000 		call ax25_poll	 ;  41	call_insn/3	[length = 2]
 108               	.LBB20:
 109               	.LBB21:
 110               	.LBB22:
 111               	.LSM10:
 112               	/* #APP */
 113               	 ;  131 "bertos/drv/timer.h" 1
 114 0070 2FB7      		in r18,__SREG__
 115 0072 F894      		cli
 116               	 ;  0 "" 2
 117               	.LVL4:
 118               	/* #NOAPP */
 119 0074 8091 0000 		lds r24,_clock	 ;  43	*movsi/3	[length = 8]
 120 0078 9091 0000 		lds r25,(_clock)+1
 121 007c A091 0000 		lds r26,(_clock)+2
 122 0080 B091 0000 		lds r27,(_clock)+3
 123               	.LVL5:
 124               	/* #APP */
 125               	 ;  131 "bertos/drv/timer.h" 1
 126 0084 2FBF      		out __SREG__,r18
 127               	 ;  0 "" 2
 128               	/* #NOAPP */
 129               	.LBE22:
 130               	.LBE21:
 131               	.LBE20:
 132               	.LSM11:
 133 0086 8C19      		sub r24,r12	 ;  46	subsi3/1	[length = 4]
 134 0088 9D09      		sbc r25,r13
 135 008a AE09      		sbc r26,r14
 136 008c BF09      		sbc r27,r15
 137 008e 8959      		subi r24,lo8(15001)	 ;  47	cmpsi/3	[length = 7]
 138 0090 9A43      		sbci r25,hi8(15001)
 139 0092 A040      		sbci r26,hlo8(15001)
 140 0094 B040      		sbci r27,hhi8(15001)
 141               	.LVL6:
 142 0096 04F0      		brlt .L6	 ;  48	branch	[length = 1]
 143               	.LBB23:
 144               	.LBB24:
 145               	.LBB25:
 146               	.LSM12:
 147               	/* #APP */
 148               	 ;  131 "bertos/drv/timer.h" 1
 149 0098 8FB7      		in r24,__SREG__
 150 009a F894      		cli
 151               	 ;  0 "" 2
 152               	.LVL7:
 153               	/* #NOAPP */
 154 009c C090 0000 		lds r12,_clock	 ;  51	*movsi/3	[length = 8]
 155 00a0 D090 0000 		lds r13,(_clock)+1
 156 00a4 E090 0000 		lds r14,(_clock)+2
 157 00a8 F090 0000 		lds r15,(_clock)+3
 158               	/* #APP */
 159               	 ;  131 "bertos/drv/timer.h" 1
 160 00ac 8FBF      		out __SREG__,r24
 161               	 ;  0 "" 2
 162               	/* #NOAPP */
 163               	.LBE25:
 164               	.LBE24:
 165               	.LBE23:
 166               	.LSM13:
 167 00ae 80E0      		ldi r24,lo8(ax25)	 ;  90	*movhi/4	[length = 2]
 168 00b0 90E0      		ldi r25,hi8(ax25)
 169               	.LVL8:
 170 00b2 60E0      		ldi r22,lo8(path)	 ;  91	*movhi/4	[length = 2]
 171 00b4 70E0      		ldi r23,hi8(path)
 172 00b6 44E0      		ldi r20,lo8(4)	 ;  59	*movhi/4	[length = 2]
 173 00b8 50E0      		ldi r21,hi8(4)
 174 00ba 20E0      		ldi r18,lo8(.LC0)	 ;  92	*movhi/4	[length = 2]
 175 00bc 30E0      		ldi r19,hi8(.LC0)
 176 00be 08E2      		ldi r16,lo8(40)	 ;  61	*movhi/4	[length = 2]
 177 00c0 10E0      		ldi r17,hi8(40)
 178 00c2 0E94 0000 		call ax25_sendVia	 ;  62	call_insn/3	[length = 2]
 179 00c6 00C0      		rjmp .L6	 ;  106	jump	[length = 1]
 180               	.LFE50:
 182               		.data
 183               	.LC1:
 184 0028 0A0A 5352 		.string	"\n\nSRC[%.6s-%d], DST[%.6s-%d]\r\n"
 184      435B 252E 
 184      3673 2D25 
 184      645D 2C20 
 184      4453 545B 
 185               	.LC2:
 186 0047 7669 613A 		.string	"via: [%.6s-%d]\r\n"
 186      205B 252E 
 186      3673 2D25 
 186      645D 0D0A 
 186      00
 187               	.LC3:
 188 0058 4441 5441 		.string	"DATA: %.*s\r\n"
 188      3A20 252E 
 188      2A73 0D0A 
 188      00
 189               		.section	.text.message_callback,"ax",@progbits
 191               	message_callback:
 192               	.LFB48:
 193               	.LSM14:
 194               	.LVL9:
 195 0000 8F92      		push r8	 ;  164	*pushqi/1	[length = 1]
 196 0002 9F92      		push r9	 ;  165	*pushqi/1	[length = 1]
 197 0004 AF92      		push r10	 ;  166	*pushqi/1	[length = 1]
 198 0006 BF92      		push r11	 ;  167	*pushqi/1	[length = 1]
 199 0008 CF92      		push r12	 ;  168	*pushqi/1	[length = 1]
 200 000a DF92      		push r13	 ;  169	*pushqi/1	[length = 1]
 201 000c EF92      		push r14	 ;  170	*pushqi/1	[length = 1]
 202 000e FF92      		push r15	 ;  171	*pushqi/1	[length = 1]
 203 0010 0F93      		push r16	 ;  172	*pushqi/1	[length = 1]
 204 0012 1F93      		push r17	 ;  173	*pushqi/1	[length = 1]
 205 0014 CF93      		push r28	 ;  174	*pushqi/1	[length = 1]
 206 0016 DF93      		push r29	 ;  175	*pushqi/1	[length = 1]
 207               	/* prologue: function */
 208               	/* frame size = 0 */
 209 0018 EC01      		movw r28,r24	 ;  33	*movhi/1	[length = 1]
 210               	.LSM15:
 211 001a 8DB7      		in r24,__SP_L__	 ;  139	*movhi_sp/2	[length = 2]
 212 001c 9EB7      		in r25,__SP_H__
 213               	.LVL10:
 214 001e 0C97      		sbiw r24,12	 ;  37	*addhi3/3	[length = 1]
 215 0020 0FB6      		in __tmp_reg__,__SREG__	 ;  140	*movhi_sp/1	[length = 5]
 216 0022 F894      		cli
 217 0024 9EBF      		out __SP_H__,r25
 218 0026 0FBE      		out __SREG__,__tmp_reg__
 219 0028 8DBF      		out __SP_L__,r24
 220 002a EDB7      		in r30,__SP_L__	 ;  141	*movhi_sp/2	[length = 2]
 221 002c FEB7      		in r31,__SP_H__
 222 002e 3196      		adiw r30,1	 ;  108	*addhi3/2	[length = 1]
 223 0030 00E0      		ldi r16,lo8(ser)	 ;  39	*movhi/4	[length = 2]
 224 0032 10E0      		ldi r17,hi8(ser)
 225 0034 ADB7      		in r26,__SP_L__	 ;  142	*movhi_sp/2	[length = 2]
 226 0036 BEB7      		in r27,__SP_H__
 227 0038 1296      		adiw r26,1+1	 ;  40	*movhi/3	[length = 4]
 228 003a 1C93      		st X,r17
 229 003c 0E93      		st -X,r16
 230 003e 1197      		sbiw r26,1
 231 0040 80E0      		ldi r24,lo8(.LC1)	 ;  41	*movhi/4	[length = 2]
 232 0042 90E0      		ldi r25,hi8(.LC1)
 233 0044 9383      		std Z+3,r25	 ;  42	*movhi/3	[length = 2]
 234 0046 8283      		std Z+2,r24
 235 0048 D583      		std Z+5,r29	 ;  43	*movhi/3	[length = 2]
 236 004a C483      		std Z+4,r28
 237 004c 8E81      		ldd r24,Y+6	 ;  44	*movqi/4	[length = 1]
 238 004e 8683      		std Z+6,r24	 ;  113	*movqi/3	[length = 1]
 239 0050 1782      		std Z+7,__zero_reg__	 ;  114	*movqi/3	[length = 1]
 240 0052 2796      		adiw r28,7	 ;  47	*addhi3/2	[length = 1]
 241 0054 D187      		std Z+9,r29	 ;  48	*movhi/3	[length = 2]
 242 0056 C087      		std Z+8,r28
 243 0058 2797      		sbiw r28,7	 ;  131	*addhi3/3	[length = 1]
 244 005a 8D85      		ldd r24,Y+13	 ;  49	*movqi/4	[length = 1]
 245 005c 8287      		std Z+10,r24	 ;  117	*movqi/3	[length = 1]
 246 005e 1386      		std Z+11,__zero_reg__	 ;  118	*movqi/3	[length = 1]
 247 0060 0E94 0000 		call kfile_printf	 ;  52	call_value_insn/3	[length = 2]
 248 0064 6E01      		movw r12,r28	 ;  53	*movhi/1	[length = 1]
 249 0066 EE24      		clr r14	 ;  54	*movhi/5	[length = 2]
 250 0068 FF24      		clr r15
 251               	.LVL11:
 252 006a EDB7      		in r30,__SP_L__	 ;  143	*movhi_sp/2	[length = 2]
 253 006c FEB7      		in r31,__SP_H__
 254 006e 3C96      		adiw r30,12	 ;  55	*addhi3/2	[length = 1]
 255 0070 0FB6      		in __tmp_reg__,__SREG__	 ;  144	*movhi_sp/1	[length = 5]
 256 0072 F894      		cli
 257 0074 FEBF      		out __SP_H__,r31
 258 0076 0FBE      		out __SREG__,__tmp_reg__
 259 0078 EDBF      		out __SP_L__,r30
 260               	.LBB26:
 261               	.LSM16:
 262 007a 36E4      		ldi r19,lo8(70)	 ;  194	*reload_inhi	[length = 3]
 263 007c A32E      		mov r10,r19
 264 007e B12C      		mov r11,__zero_reg__
 265 0080 AC0E      		add r10,r28	 ;  81	*addhi3/1	[length = 2]
 266 0082 BD1E      		adc r11,r29
 267 0084 4801      		movw r8,r16	 ;  193	*movhi/1	[length = 1]
 268               	.LSM17:
 269 0086 00E0      		ldi r16,lo8(.LC2)	 ;  63	*movhi/4	[length = 2]
 270 0088 10E0      		ldi r17,hi8(.LC2)
 271 008a 00C0      		rjmp .L8	 ;  195	jump	[length = 1]
 272               	.L9:
 273 008c 8DB7      		in r24,__SP_L__	 ;  146	*movhi_sp/2	[length = 2]
 274 008e 9EB7      		in r25,__SP_H__
 275 0090 0897      		sbiw r24,8	 ;  59	*addhi3/3	[length = 1]
 276 0092 0FB6      		in __tmp_reg__,__SREG__	 ;  147	*movhi_sp/1	[length = 5]
 277 0094 F894      		cli
 278 0096 9EBF      		out __SP_H__,r25
 279 0098 0FBE      		out __SREG__,__tmp_reg__
 280 009a 8DBF      		out __SP_L__,r24
 281 009c EDB7      		in r30,__SP_L__	 ;  148	*movhi_sp/2	[length = 2]
 282 009e FEB7      		in r31,__SP_H__
 283 00a0 3196      		adiw r30,1	 ;  109	*addhi3/2	[length = 1]
 284 00a2 ADB7      		in r26,__SP_L__	 ;  149	*movhi_sp/2	[length = 2]
 285 00a4 BEB7      		in r27,__SP_H__
 286 00a6 1196      		adiw r26,1	 ;  135	*movqi/3	[length = 3]
 287 00a8 8C92      		st X,r8
 288 00aa 1197      		sbiw r26,1
 289 00ac 1296      		adiw r26,2	 ;  136	*movqi/3	[length = 2]
 290 00ae 9C92      		st X,r9
 291 00b0 1383      		std Z+3,r17	 ;  64	*movhi/3	[length = 2]
 292 00b2 0283      		std Z+2,r16
 293 00b4 C701      		movw r24,r14	 ;  150	*movhi/1	[length = 1]
 294 00b6 23E0      		ldi r18,3	 ;  192	*ashlhi3_const/5	[length = 5]
 295 00b8 880F      	1:	lsl r24
 296 00ba 991F      		rol r25
 297 00bc 2A95      		dec r18
 298 00be 01F4      		brne 1b
 299 00c0 8E19      		sub r24,r14	 ;  67	subhi3/1	[length = 2]
 300 00c2 9F09      		sbc r25,r15
 301 00c4 0E96      		adiw r24,14	 ;  68	*addhi3/2	[length = 1]
 302 00c6 8C0F      		add r24,r28	 ;  69	*addhi3/1	[length = 2]
 303 00c8 9D1F      		adc r25,r29
 304 00ca 9583      		std Z+5,r25	 ;  70	*movhi/3	[length = 2]
 305 00cc 8483      		std Z+4,r24
 306 00ce D601      		movw r26,r12	 ;  151	*movhi/1	[length = 1]
 307 00d0 1D96      		adiw r26,13	 ;  71	*movqi/4	[length = 2]
 308 00d2 8C91      		ld r24,X
 309 00d4 8683      		std Z+6,r24	 ;  121	*movqi/3	[length = 1]
 310 00d6 1782      		std Z+7,__zero_reg__	 ;  122	*movqi/3	[length = 1]
 311 00d8 0E94 0000 		call kfile_printf	 ;  74	call_value_insn/3	[length = 2]
 312               	.LSM18:
 313 00dc 0894      		sec	 ;  75	*addhi3/5	[length = 3]
 314 00de E11C      		adc r14,__zero_reg__
 315 00e0 F11C      		adc r15,__zero_reg__
 316 00e2 EDB7      		in r30,__SP_L__	 ;  152	*movhi_sp/2	[length = 2]
 317 00e4 FEB7      		in r31,__SP_H__
 318 00e6 3896      		adiw r30,8	 ;  76	*addhi3/2	[length = 1]
 319 00e8 0FB6      		in __tmp_reg__,__SREG__	 ;  153	*movhi_sp/1	[length = 5]
 320 00ea F894      		cli
 321 00ec FEBF      		out __SP_H__,r31
 322 00ee 0FBE      		out __SREG__,__tmp_reg__
 323 00f0 EDBF      		out __SP_L__,r30
 324               	.L8:
 325 00f2 87E0      		ldi r24,lo8(7)	 ;  154	*movhi/4	[length = 2]
 326 00f4 90E0      		ldi r25,hi8(7)
 327 00f6 C80E      		add r12,r24	 ;  79	*addhi3/1	[length = 2]
 328 00f8 D91E      		adc r13,r25
 329 00fa D501      		movw r26,r10	 ;  155	*movhi/1	[length = 1]
 330 00fc 8C91      		ld r24,X	 ;  82	*movqi/4	[length = 1]
 331 00fe 90E0      		ldi r25,lo8(0)	 ;  163	*movqi/2	[length = 1]
 332 0100 E816      		cp r14,r24	 ;  84	cmphi/1	[length = 2]
 333 0102 F906      		cpc r15,r25
 334 0104 04F0      		brlt .L9	 ;  85	branch	[length = 1]
 335               	.LBE26:
 336               	.LSM19:
 337 0106 EDB7      		in r30,__SP_L__	 ;  156	*movhi_sp/2	[length = 2]
 338 0108 FEB7      		in r31,__SP_H__
 339 010a 3897      		sbiw r30,8	 ;  87	*addhi3/3	[length = 1]
 340 010c 0FB6      		in __tmp_reg__,__SREG__	 ;  157	*movhi_sp/1	[length = 5]
 341 010e F894      		cli
 342 0110 FEBF      		out __SP_H__,r31
 343 0112 0FBE      		out __SREG__,__tmp_reg__
 344 0114 EDBF      		out __SP_L__,r30
 345 0116 3196      		adiw r30,1	 ;  110	*addhi3/2	[length = 1]
 346 0118 80E0      		ldi r24,lo8(ser)	 ;  137	*movhi/4	[length = 2]
 347 011a 90E0      		ldi r25,hi8(ser)
 348 011c ADB7      		in r26,__SP_L__	 ;  159	*movhi_sp/2	[length = 2]
 349 011e BEB7      		in r27,__SP_H__
 350 0120 1296      		adiw r26,1+1	 ;  90	*movhi/3	[length = 4]
 351 0122 9C93      		st X,r25
 352 0124 8E93      		st -X,r24
 353 0126 1197      		sbiw r26,1
 354 0128 80E0      		ldi r24,lo8(.LC3)	 ;  91	*movhi/4	[length = 2]
 355 012a 90E0      		ldi r25,hi8(.LC3)
 356 012c 9383      		std Z+3,r25	 ;  92	*movhi/3	[length = 2]
 357 012e 8283      		std Z+2,r24
 358 0130 C45B      		subi r28,lo8(-(76))	 ;  93	*addhi3/4	[length = 2]
 359 0132 DF4F      		sbci r29,hi8(-(76))
 360 0134 8881      		ld r24,Y	 ;  94	*movhi/2	[length = 2]
 361 0136 9981      		ldd r25,Y+1
 362 0138 9583      		std Z+5,r25	 ;  95	*movhi/3	[length = 2]
 363 013a 8483      		std Z+4,r24
 364 013c DE01      		movw r26,r28	 ;  96	*movhi/1	[length = 1]
 365 013e 9E91      		ld r25,-X	 ;  97	*movhi/2	[length = 2]
 366 0140 8E91      		ld r24,-X
 367 0142 9783      		std Z+7,r25	 ;  98	*movhi/3	[length = 2]
 368 0144 8683      		std Z+6,r24
 369 0146 0E94 0000 		call kfile_printf	 ;  99	call_value_insn/3	[length = 2]
 370 014a EDB7      		in r30,__SP_L__	 ;  160	*movhi_sp/2	[length = 2]
 371 014c FEB7      		in r31,__SP_H__
 372 014e 3896      		adiw r30,8	 ;  100	*addhi3/2	[length = 1]
 373 0150 0FB6      		in __tmp_reg__,__SREG__	 ;  161	*movhi_sp/1	[length = 5]
 374 0152 F894      		cli
 375 0154 FEBF      		out __SP_H__,r31
 376 0156 0FBE      		out __SREG__,__tmp_reg__
 377 0158 EDBF      		out __SP_L__,r30
 378               	/* epilogue start */
 379               	.LSM20:
 380 015a DF91      		pop r29	 ;  178	popqi	[length = 1]
 381 015c CF91      		pop r28	 ;  179	popqi	[length = 1]
 382               	.LVL12:
 383 015e 1F91      		pop r17	 ;  180	popqi	[length = 1]
 384 0160 0F91      		pop r16	 ;  181	popqi	[length = 1]
 385 0162 FF90      		pop r15	 ;  182	popqi	[length = 1]
 386 0164 EF90      		pop r14	 ;  183	popqi	[length = 1]
 387               	.LVL13:
 388 0166 DF90      		pop r13	 ;  184	popqi	[length = 1]
 389 0168 CF90      		pop r12	 ;  185	popqi	[length = 1]
 390 016a BF90      		pop r11	 ;  186	popqi	[length = 1]
 391 016c AF90      		pop r10	 ;  187	popqi	[length = 1]
 392 016e 9F90      		pop r9	 ;  188	popqi	[length = 1]
 393 0170 8F90      		pop r8	 ;  189	popqi	[length = 1]
 394 0172 0895      		ret	 ;  190	return_from_epilogue	[length = 1]
 395               	.LFE48:
 397               		.section	.data.path,"aw",@progbits
 400               	path:
 401 0000 6170 7A62 		.ascii	"apzbrt"
 401      7274 
 402 0006 00        		.byte	0
 403 0007 6E6F 6361 		.ascii	"nocall"
 403      6C6C 
 404 000d 00        		.byte	0
 405 000e 7769 6465 		.string	"wide1"
 405      3100 
 406 0014 01        		.byte	1
 407 0015 7769 6465 		.string	"wide2"
 407      3200 
 408 001b 02        		.byte	2
 409               		.section	.bss.afsk,"aw",@nobits
 412               	afsk:
 413 0000 0000 0000 		.skip 220,0
 413      0000 0000 
 413      0000 0000 
 413      0000 0000 
 413      0000 0000 
 414               		.section	.bss.ax25,"aw",@nobits
 417               	ax25:
 418 0000 0000 0000 		.skip 342,0
 418      0000 0000 
 418      0000 0000 
 418      0000 0000 
 418      0000 0000 
 419               		.section	.bss.ser,"aw",@nobits
 422               	ser:
 423 0000 0000 0000 		.skip 50,0
 423      0000 0000 
 423      0000 0000 
 423      0000 0000 
 423      0000 0000 
 456               	.Letext0:
DEFINED SYMBOLS
                            *ABS*:00000000 main.c
C:\DOCUME~1\develer\IMPOST~1\Temp/cc38H5Mb.s:2      *ABS*:0000003f __SREG__
C:\DOCUME~1\develer\IMPOST~1\Temp/cc38H5Mb.s:3      *ABS*:0000003e __SP_H__
C:\DOCUME~1\develer\IMPOST~1\Temp/cc38H5Mb.s:4      *ABS*:0000003d __SP_L__
C:\DOCUME~1\develer\IMPOST~1\Temp/cc38H5Mb.s:5      *ABS*:00000034 __CCP__
C:\DOCUME~1\develer\IMPOST~1\Temp/cc38H5Mb.s:6      *ABS*:00000000 __tmp_reg__
C:\DOCUME~1\develer\IMPOST~1\Temp/cc38H5Mb.s:7      *ABS*:00000001 __zero_reg__
C:\DOCUME~1\develer\IMPOST~1\Temp/cc38H5Mb.s:22     .text.main:00000000 main
C:\DOCUME~1\develer\IMPOST~1\Temp/cc38H5Mb.s:412    .bss.afsk:00000000 afsk
C:\DOCUME~1\develer\IMPOST~1\Temp/cc38H5Mb.s:417    .bss.ax25:00000000 ax25
C:\DOCUME~1\develer\IMPOST~1\Temp/cc38H5Mb.s:191    .text.message_callback:00000000 message_callback
C:\DOCUME~1\develer\IMPOST~1\Temp/cc38H5Mb.s:422    .bss.ser:00000000 ser
C:\DOCUME~1\develer\IMPOST~1\Temp/cc38H5Mb.s:400    .data.path:00000000 path

UNDEFINED SYMBOLS
kdbg_init
timer_init
afsk_init
ax25_init
ser_init
ser_setbaudrate
_clock
ax25_poll
ax25_sendVia
kfile_printf
__do_copy_data
__do_clear_bss
